(dp1
S'output'
p2
S"<type 'exceptions.NameError'> global name 'value_occurences' is not defined"
p3
sS'layer'
p4
S'/home/rovyas/Documents/web2py/web2py/applications/pluralsight/controllers/priority.py'
p5
sS'code'
p6
S'<code object <module> at 0x7fe05644b6b0, file "/home/rovyas/Documents/web2py/web2py/applications/pluralsight/controllers/priority.py", line 4>'
p7
sS'snapshot'
p8
(dp9
sS'traceback'
p10
S'Traceback (most recent call last):\n  File "/home/rovyas/Documents/web2py/web2py/gluon/restricted.py", line 219, in restricted\n    exec(ccode, environment)\n  File "/home/rovyas/Documents/web2py/web2py/applications/pluralsight/controllers/priority.py", line 94, in <module>\n  File "/home/rovyas/Documents/web2py/web2py/gluon/globals.py", line 414, in <lambda>\n    self._caller = lambda f: f()\n  File "/home/rovyas/Documents/web2py/web2py/applications/pluralsight/controllers/priority.py", line 67, in test\n    dup_value_dict,filtered_dict = dup_val(ranking)\n  File "/home/rovyas/Documents/web2py/web2py/applications/pluralsight/controllers/priority.py", line 81, in dup_val\n    filtered_dict = {key: value for key, value in dict_val.items() if value_occurences[value] > 1}\n  File "/home/rovyas/Documents/web2py/web2py/applications/pluralsight/controllers/priority.py", line 81, in <dictcomp>\n    filtered_dict = {key: value for key, value in dict_val.items() if value_occurences[value] > 1}\nNameError: global name \'value_occurences\' is not defined\n'
p11
s.