(dp1
S'output'
p2
S"<type 'exceptions.NameError'> global name 'new_sentence' is not defined"
p3
sS'layer'
p4
S'/home/rovyas/Documents/web2py/web2py/applications/pluralsight/controllers/priority.py'
p5
sS'code'
p6
S'<code object <module> at 0x7f894736c830, file "/home/rovyas/Documents/web2py/web2py/applications/pluralsight/controllers/priority.py", line 4>'
p7
sS'snapshot'
p8
(dp9
sS'traceback'
p10
S'Traceback (most recent call last):\n  File "/home/rovyas/Documents/web2py/web2py/gluon/restricted.py", line 219, in restricted\n    exec(ccode, environment)\n  File "/home/rovyas/Documents/web2py/web2py/applications/pluralsight/controllers/priority.py", line 232, in <module>\n  File "/home/rovyas/Documents/web2py/web2py/gluon/globals.py", line 414, in <lambda>\n    self._caller = lambda f: f()\n  File "/home/rovyas/Documents/web2py/web2py/applications/pluralsight/controllers/priority.py", line 55, in test\n    sentence = sentence + new_sentence\nNameError: global name \'new_sentence\' is not defined\n'
p11
s.